target datalayout = "e-m:e-p270:32:32-p271:32:32-p272:64:64-i64:64-i128:128-f80:128-n8:16:32:64-S128"
target triple = "x86_64-pc-linux-gnu"

%struct.hwloc_x86_backend_data_s = type { i32, ptr, i32, ptr, i32, i32, i32, i32, i32, i32, i32 }

; Function Attrs: nounwind uwtable
define internal void @hwloc_x86_backend_disable(ptr noundef %0) #0 {
  %2 = alloca ptr, align 8
  %3 = alloca ptr, align 8
  store ptr %0, ptr %2, align 8, !tbaa !13
  call void @llvm.lifetime.start.p0(i64 8, ptr %3) #15
  %4 = load ptr, ptr %2, align 8, !tbaa !13
  %5 = getelementptr inbounds nuw i8, ptr %4, i64 80
  store ptr %5, ptr %3, align 8, !tbaa !19
  %6 = load ptr, ptr %3, align 8, !tbaa !19
  %7 = getelementptr inbounds nuw %struct.hwloc_x86_backend_data_s, ptr %6, i32 0, i32 1
  %8 = load ptr, ptr %7, align 8, !tbaa !26
  call void @hwloc_bitmap_free(ptr noundef %8)
  %9 = load ptr, ptr %3, align 8, !tbaa !19
  %10 = getelementptr inbounds nuw %struct.hwloc_x86_backend_data_s, ptr %9, i32 0, i32 3
  %11 = load ptr, ptr %10, align 8, !tbaa !28
  call void @free(ptr noundef %11) #15
  call void @llvm.lifetime.end.p0(i64 8, ptr %3) #15
  ret void
}