; Function Attrs: nounwind uwtable
define internal void @hwloc_x86_backend_disable(ptr noundef readonly captures(none) %0) #0 {
  %2 = getelementptr inbounds nuw i8, ptr %0, i64 88
  %3 = load ptr, ptr %2, align 8, !tbaa !19
  tail call void @hwloc_bitmap_free(ptr noundef %3) #22
  %4 = getelementptr inbounds nuw i8, ptr %0, i64 104
  %5 = load ptr, ptr %4, align 8, !tbaa !21
  tail call void @free(ptr noundef %5) #22
  ret void
}